; Function Attrs: mustprogress nounwind uwtable
define void @_ZN5boost3log11v2_mt_posix3ipc22reliable_message_queue8do_closeEv(ptr nocapture noundef nonnull align 8 dereferenceable(8) %0) local_unnamed_addr #12 align 2 {
  %2 = load ptr, ptr %0, align 8, !tbaa !20
  %3 = icmp eq ptr %2, null
  br i1 %3, label %5, label %4

4:                                                ; preds = %1
  tail call void @_ZN5boost3log11v2_mt_posix3ipc22reliable_message_queue14implementationD2Ev(ptr noundef nonnull align 8 dereferenceable(104) %2) #32
  tail call void @_ZdlPvm(ptr noundef nonnull %2, i64 noundef 104) #36
  br label %5

5:                                                ; preds = %4, %1
  store ptr null, ptr %0, align 8, !tbaa !20
  ret void
}